; ModuleID = '42/552.c'
source_filename = "42/552.c"
target datalayout = "e-m:e-p270:32:32-p271:32:32-p272:64:64-i64:64-f80:128-n8:16:32:64-S128"
target triple = "x86_64-pc-linux-gnu"

@.str = private unnamed_addr constant [3 x i8] c"%d\00", align 1
@.str.1 = private unnamed_addr constant [2 x i8] c" \00", align 1

; Function Attrs: noinline nounwind uwtable
define dso_local void @main() #0 {
  %1 = alloca i32, align 4
  %2 = alloca [100000 x i32], align 16
  %3 = alloca i32, align 4
  %4 = alloca i32, align 4
  %5 = alloca i32, align 4
  %6 = alloca i32, align 4
  %7 = alloca i32, align 4
  %8 = alloca i32, align 4
  %9 = alloca i32*, align 8
  store i32 0, i32* %6, align 4
  store i32 0, i32* %7, align 4
  %10 = call i32 (i8*, ...) @__isoc99_scanf(i8* getelementptr inbounds ([3 x i8], [3 x i8]* @.str, i64 0, i64 0), i32* %1)
  store i32 0, i32* %3, align 4
  br label %11

11:                                               ; preds = %20, %0
  %12 = load i32, i32* %3, align 4
  %13 = load i32, i32* %1, align 4
  %14 = icmp slt i32 %12, %13
  br i1 %14, label %15, label %23

15:                                               ; preds = %11
  %16 = load i32, i32* %3, align 4
  %17 = sext i32 %16 to i64
  %18 = getelementptr inbounds [100000 x i32], [100000 x i32]* %2, i64 0, i64 %17
  %19 = call i32 (i8*, ...) @__isoc99_scanf(i8* getelementptr inbounds ([3 x i8], [3 x i8]* @.str, i64 0, i64 0), i32* %18)
  br label %20

20:                                               ; preds = %15
  %21 = load i32, i32* %3, align 4
  %22 = add nsw i32 %21, 1
  store i32 %22, i32* %3, align 4
  br label %11

23:                                               ; preds = %11
  %24 = getelementptr inbounds [100000 x i32], [100000 x i32]* %2, i64 0, i64 0
  store i32* %24, i32** %9, align 8
  %25 = call i32 (i8*, ...) @__isoc99_scanf(i8* getelementptr inbounds ([3 x i8], [3 x i8]* @.str, i64 0, i64 0), i32* %5)
  store i32 0, i32* %3, align 4
  br label %26

26:                                               ; preds = %86, %23
  %27 = load i32, i32* %3, align 4
  %28 = load i32, i32* %1, align 4
  %29 = load i32, i32* %6, align 4
  %30 = sub nsw i32 %28, %29
  %31 = icmp slt i32 %27, %30
  br i1 %31, label %32, label %89

32:                                               ; preds = %26
  %33 = load i32, i32* %7, align 4
  %34 = load i32, i32* %1, align 4
  %35 = icmp sge i32 %33, %34
  br i1 %35, label %36, label %37

36:                                               ; preds = %32
  br label %89

37:                                               ; preds = %32
  %38 = load i32*, i32** %9, align 8
  %39 = load i32, i32* %3, align 4
  %40 = sext i32 %39 to i64
  %41 = getelementptr inbounds i32, i32* %38, i64 %40
  %42 = load i32, i32* %41, align 4
  %43 = load i32, i32* %5, align 4
  %44 = icmp eq i32 %42, %43
  br i1 %44, label %45, label %83

45:                                               ; preds = %37
  %46 = load i32, i32* %6, align 4
  %47 = add nsw i32 %46, 1
  store i32 %47, i32* %6, align 4
  %48 = load i32, i32* %3, align 4
  store i32 %48, i32* %4, align 4
  br label %49

49:                                               ; preds = %77, %45
  %50 = load i32, i32* %4, align 4
  %51 = load i32, i32* %1, align 4
  %52 = load i32, i32* %6, align 4
  %53 = sub nsw i32 %51, %52
  %54 = icmp slt i32 %50, %53
  br i1 %54, label %55, label %80

55:                                               ; preds = %49
  %56 = load i32*, i32** %9, align 8
  %57 = load i32, i32* %4, align 4
  %58 = sext i32 %57 to i64
  %59 = getelementptr inbounds i32, i32* %56, i64 %58
  %60 = load i32, i32* %59, align 4
  store i32 %60, i32* %8, align 4
  %61 = load i32*, i32** %9, align 8
  %62 = load i32, i32* %4, align 4
  %63 = sext i32 %62 to i64
  %64 = getelementptr inbounds i32, i32* %61, i64 %63
  %65 = getelementptr inbounds i32, i32* %64, i64 1
  %66 = load i32, i32* %65, align 4
  %67 = load i32*, i32** %9, align 8
  %68 = load i32, i32* %4, align 4
  %69 = sext i32 %68 to i64
  %70 = getelementptr inbounds i32, i32* %67, i64 %69
  store i32 %66, i32* %70, align 4
  %71 = load i32, i32* %8, align 4
  %72 = load i32*, i32** %9, align 8
  %73 = load i32, i32* %4, align 4
  %74 = sext i32 %73 to i64
  %75 = getelementptr inbounds i32, i32* %72, i64 %74
  %76 = getelementptr inbounds i32, i32* %75, i64 1
  store i32 %71, i32* %76, align 4
  br label %77

77:                                               ; preds = %55
  %78 = load i32, i32* %4, align 4
  %79 = add nsw i32 %78, 1
  store i32 %79, i32* %4, align 4
  br label %49

80:                                               ; preds = %49
  %81 = load i32, i32* %3, align 4
  %82 = add nsw i32 %81, -1
  store i32 %82, i32* %3, align 4
  br label %83

83:                                               ; preds = %80, %37
  %84 = load i32, i32* %7, align 4
  %85 = add nsw i32 %84, 1
  store i32 %85, i32* %7, align 4
  br label %86

86:                                               ; preds = %83
  %87 = load i32, i32* %3, align 4
  %88 = add nsw i32 %87, 1
  store i32 %88, i32* %3, align 4
  br label %26

89:                                               ; preds = %36, %26
  store i32 0, i32* %3, align 4
  br label %90

90:                                               ; preds = %112, %89
  %91 = load i32, i32* %3, align 4
  %92 = load i32, i32* %1, align 4
  %93 = load i32, i32* %6, align 4
  %94 = sub nsw i32 %92, %93
  %95 = icmp slt i32 %91, %94
  br i1 %95, label %96, label %115

96:                                               ; preds = %90
  %97 = load i32*, i32** %9, align 8
  %98 = load i32, i32* %3, align 4
  %99 = sext i32 %98 to i64
  %100 = getelementptr inbounds i32, i32* %97, i64 %99
  %101 = load i32, i32* %100, align 4
  %102 = call i32 (i8*, ...) @printf(i8* getelementptr inbounds ([3 x i8], [3 x i8]* @.str, i64 0, i64 0), i32 %101)
  %103 = load i32, i32* %3, align 4
  %104 = load i32, i32* %1, align 4
  %105 = load i32, i32* %6, align 4
  %106 = sub nsw i32 %104, %105
  %107 = sub nsw i32 %106, 1
  %108 = icmp ne i32 %103, %107
  br i1 %108, label %109, label %111

109:                                              ; preds = %96
  %110 = call i32 (i8*, ...) @printf(i8* getelementptr inbounds ([2 x i8], [2 x i8]* @.str.1, i64 0, i64 0))
  br label %111

111:                                              ; preds = %109, %96
  br label %112

112:                                              ; preds = %111
  %113 = load i32, i32* %3, align 4
  %114 = add nsw i32 %113, 1
  store i32 %114, i32* %3, align 4
  br label %90

115:                                              ; preds = %90
  ret void
}

declare dso_local i32 @__isoc99_scanf(i8*, ...) #1

declare dso_local i32 @printf(i8*, ...) #1


!llvm.module.flags = !{!0}
!llvm.ident = !{!1}

!0 = !{i32 1, !"wchar_size", i32 4}
!1 = !{!"clang version 10.0.0-4ubuntu1 "}
